target datalayout = "e-m:e-p270:32:32-p271:32:32-p272:64:64-i64:64-i128:128-f80:128-n8:16:32:64-S128"
target triple = "x86_64-pc-linux-gnu"

%struct._zval_struct = type { %union._zend_value, %union.anon.9, %union.anon.12 }
%union._zend_value = type { i64 }
%union.anon.9 = type { i32 }
%union.anon.12 = type { i32 }
%struct._zend_ast = type { i16, i16, i32, [1 x ptr] }
%struct._zend_ast_zval = type { i16, i16, %struct._zval_struct }
%struct._zend_ast_list = type { i16, i16, i32, i32, [1 x ptr] }

; Function Attrs: nounwind uwtable
define internal ptr @zend_persist_ast(ptr noundef %0) #0 {
  %2 = alloca i32, align 4
  %3 = alloca ptr, align 8
  %4 = alloca ptr, align 8
  %5 = alloca ptr, align 8
  %6 = alloca ptr, align 8
  %7 = alloca i32, align 4
  %8 = alloca ptr, align 8
  %9 = alloca ptr, align 8
  %10 = alloca ptr, align 8
  %11 = alloca ptr, align 8
  %12 = alloca i32, align 4
  store ptr %0, ptr %6, align 8
  %13 = load ptr, ptr %6, align 8
  %14 = getelementptr inbounds %struct._zend_ast, ptr %13, i32 0, i32 0
  %15 = load i16, ptr %14, align 8
  %16 = zext i16 %15 to i32
  %17 = icmp eq i32 %16, 64
  br i1 %17, label %24, label %18

18:                                               ; preds = %1
  %19 = load ptr, ptr %6, align 8
  %20 = getelementptr inbounds %struct._zend_ast, ptr %19, i32 0, i32 0
  %21 = load i16, ptr %20, align 8
  %22 = zext i16 %21 to i32
  %23 = icmp eq i32 %22, 65
  br i1 %23, label %24, label %30

24:                                               ; preds = %18, %1
  %25 = load ptr, ptr %6, align 8
  %26 = call ptr @zend_shared_memdup(ptr noundef %25, i64 noundef 24)
  store ptr %26, ptr %9, align 8
  %27 = load ptr, ptr %9, align 8
  %28 = getelementptr inbounds %struct._zend_ast_zval, ptr %27, i32 0, i32 2
  call void @zend_persist_zval(ptr noundef %28)
  %29 = load ptr, ptr %9, align 8
  store ptr %29, ptr %8, align 8
  br label %126

30:                                               ; preds = %18
  %31 = load ptr, ptr %6, align 8
  store ptr %31, ptr %5, align 8
  %32 = load ptr, ptr %5, align 8
  %33 = load i16, ptr %32, align 8
  %34 = zext i16 %33 to i32
  %35 = ashr i32 %34, 7
  %36 = and i32 %35, 1
  %37 = icmp ne i32 %36, 0
  br i1 %37, label %38, label %82

38:                                               ; preds = %30
  %39 = load ptr, ptr %6, align 8
  store ptr %39, ptr %4, align 8
  %40 = load ptr, ptr %4, align 8
  store ptr %40, ptr %10, align 8
  %41 = load ptr, ptr %6, align 8
  %42 = load ptr, ptr %10, align 8
  %43 = getelementptr inbounds %struct._zend_ast_list, ptr %42, i32 0, i32 3
  %44 = load i32, ptr %43, align 8
  %45 = zext i32 %44 to i64
  %46 = mul i64 8, %45
  %47 = add i64 16, %46
  %48 = call ptr @zend_shared_memdup(ptr noundef %41, i64 noundef %47)
  store ptr %48, ptr %11, align 8
  store i32 0, ptr %7, align 4
  br label %49

49:                                               ; preds = %77, %38
  %50 = load i32, ptr %7, align 4
  %51 = load ptr, ptr %10, align 8
  %52 = getelementptr inbounds %struct._zend_ast_list, ptr %51, i32 0, i32 3
  %53 = load i32, ptr %52, align 8
  %54 = icmp ult i32 %50, %53
  br i1 %54, label %55, label %80

55:                                               ; preds = %49
  %56 = load ptr, ptr %11, align 8
  %57 = getelementptr inbounds %struct._zend_ast_list, ptr %56, i32 0, i32 4
  %58 = load i32, ptr %7, align 4
  %59 = zext i32 %58 to i64
  %60 = getelementptr inbounds [1 x ptr], ptr %57, i64 0, i64 %59
  %61 = load ptr, ptr %60, align 8
  %62 = icmp ne ptr %61, null
  br i1 %62, label %63, label %76

63:                                               ; preds = %55
  %64 = load ptr, ptr %11, align 8
  %65 = getelementptr inbounds %struct._zend_ast_list, ptr %64, i32 0, i32 4
  %66 = load i32, ptr %7, align 4
  %67 = zext i32 %66 to i64
  %68 = getelementptr inbounds [1 x ptr], ptr %65, i64 0, i64 %67
  %69 = load ptr, ptr %68, align 8
  %70 = call ptr @zend_persist_ast(ptr noundef %69)
  %71 = load ptr, ptr %11, align 8
  %72 = getelementptr inbounds %struct._zend_ast_list, ptr %71, i32 0, i32 4
  %73 = load i32, ptr %7, align 4
  %74 = zext i32 %73 to i64
  %75 = getelementptr inbounds [1 x ptr], ptr %72, i64 0, i64 %74
  store ptr %70, ptr %75, align 8
  br label %76

76:                                               ; preds = %63, %55
  br label %77

77:                                               ; preds = %76
  %78 = load i32, ptr %7, align 4
  %79 = add i32 %78, 1
  store i32 %79, ptr %7, align 4
  br label %49

80:                                               ; preds = %49
  %81 = load ptr, ptr %11, align 8
  store ptr %81, ptr %8, align 8
  br label %125

82:                                               ; preds = %30
  %83 = load ptr, ptr %6, align 8
  store ptr %83, ptr %3, align 8
  %84 = load ptr, ptr %3, align 8
  %85 = load i16, ptr %84, align 8
  %86 = zext i16 %85 to i32
  %87 = ashr i32 %86, 8
  store i32 %87, ptr %12, align 4
  %88 = load ptr, ptr %6, align 8
  %89 = load i32, ptr %12, align 4
  store i32 %89, ptr %2, align 4
  %90 = load i32, ptr %2, align 4
  %91 = zext i32 %90 to i64
  %92 = mul i64 8, %91
  %93 = add i64 8, %92
  %94 = call ptr @zend_shared_memdup(ptr noundef %88, i64 noundef %93)
  store ptr %94, ptr %8, align 8
  store i32 0, ptr %7, align 4
  br label %95

95:                                               ; preds = %121, %82
  %96 = load i32, ptr %7, align 4
  %97 = load i32, ptr %12, align 4
  %98 = icmp ult i32 %96, %97
  br i1 %98, label %99, label %124

99:                                               ; preds = %95
  %100 = load ptr, ptr %8, align 8
  %101 = getelementptr inbounds %struct._zend_ast, ptr %100, i32 0, i32 3
  %102 = load i32, ptr %7, align 4
  %103 = zext i32 %102 to i64
  %104 = getelementptr inbounds [1 x ptr], ptr %101, i64 0, i64 %103
  %105 = load ptr, ptr %104, align 8
  %106 = icmp ne ptr %105, null
  br i1 %106, label %107, label %120

107:                                              ; preds = %99
  %108 = load ptr, ptr %8, align 8
  %109 = getelementptr inbounds %struct._zend_ast, ptr %108, i32 0, i32 3
  %110 = load i32, ptr %7, align 4
  %111 = zext i32 %110 to i64
  %112 = getelementptr inbounds [1 x ptr], ptr %109, i64 0, i64 %111
  %113 = load ptr, ptr %112, align 8
  %114 = call ptr @zend_persist_ast(ptr noundef %113)
  %115 = load ptr, ptr %8, align 8
  %116 = getelementptr inbounds %struct._zend_ast, ptr %115, i32 0, i32 3
  %117 = load i32, ptr %7, align 4
  %118 = zext i32 %117 to i64
  %119 = getelementptr inbounds [1 x ptr], ptr %116, i64 0, i64 %118
  store ptr %114, ptr %119, align 8
  br label %120

120:                                              ; preds = %107, %99
  br label %121

121:                                              ; preds = %120
  %122 = load i32, ptr %7, align 4
  %123 = add i32 %122, 1
  store i32 %123, ptr %7, align 4
  br label %95

124:                                              ; preds = %95
  br label %125

125:                                              ; preds = %124, %80
  br label %126

126:                                              ; preds = %125, %24
  %127 = load ptr, ptr %8, align 8
  ret ptr %127
}