; Function Attrs: nounwind uwtable
define internal fastcc ptr @zend_persist_ast(ptr noundef %0) unnamed_addr #0 {
  %2 = load i16, ptr %0, align 8
  %3 = zext i16 %2 to i32
  %4 = and i16 %2, -2
  %switch = icmp eq i16 %4, 64
  br i1 %switch, label %5, label %8

5:                                                ; preds = %1
  %6 = tail call ptr @zend_shared_memdup(ptr noundef nonnull %0, i64 noundef 24) #6
  %7 = getelementptr inbounds i8, ptr %6, i64 8
  tail call fastcc void @zend_persist_zval(ptr noundef nonnull %7)
  br label %.loopexit

8:                                                ; preds = %1
  %9 = and i32 %3, 128
  %.not = icmp eq i32 %9, 0
  br i1 %.not, label %29, label %10

10:                                               ; preds = %8
  %11 = getelementptr inbounds i8, ptr %0, i64 8
  %12 = load i32, ptr %11, align 8
  %13 = zext i32 %12 to i64
  %14 = shl nuw nsw i64 %13, 3
  %15 = add nuw nsw i64 %14, 16
  %16 = tail call ptr @zend_shared_memdup(ptr noundef nonnull %0, i64 noundef %15) #6
  %17 = load i32, ptr %11, align 8
  %.not45 = icmp eq i32 %17, 0
  br i1 %.not45, label %.loopexit, label %.lr.ph

.lr.ph:                                           ; preds = %10
  %18 = getelementptr inbounds i8, ptr %16, i64 16
  br label %19

19:                                               ; preds = %.lr.ph, %25
  %20 = phi i32 [ %17, %.lr.ph ], [ %26, %25 ]
  %indvars.iv = phi i64 [ 0, %.lr.ph ], [ %indvars.iv.next, %25 ]
  %21 = getelementptr inbounds [1 x ptr], ptr %18, i64 0, i64 %indvars.iv
  %22 = load ptr, ptr %21, align 8
  %.not40 = icmp eq ptr %22, null
  br i1 %.not40, label %25, label %23

23:                                               ; preds = %19
  %24 = tail call fastcc ptr @zend_persist_ast(ptr noundef nonnull %22)
  store ptr %24, ptr %21, align 8
  %.pre = load i32, ptr %11, align 8
  br label %25

25:                                               ; preds = %19, %23
  %26 = phi i32 [ %20, %19 ], [ %.pre, %23 ]
  %indvars.iv.next = add nuw nsw i64 %indvars.iv, 1
  %27 = zext i32 %26 to i64
  %28 = icmp ult i64 %indvars.iv.next, %27
  br i1 %28, label %19, label %.loopexit

29:                                               ; preds = %8
  %30 = lshr i32 %3, 8
  %31 = shl nuw nsw i32 %30, 3
  %narrow = add nuw nsw i32 %31, 8
  %32 = zext nneg i32 %narrow to i64
  %33 = tail call ptr @zend_shared_memdup(ptr noundef nonnull %0, i64 noundef %32) #6
  %.not46 = icmp ult i16 %2, 256
  br i1 %.not46, label %.loopexit, label %.lr.ph44

.lr.ph44:                                         ; preds = %29
  %34 = getelementptr inbounds i8, ptr %33, i64 8
  %wide.trip.count = zext nneg i32 %30 to i64
  br label %35

35:                                               ; preds = %.lr.ph44, %40
  %indvars.iv49 = phi i64 [ 0, %.lr.ph44 ], [ %indvars.iv.next50, %40 ]
  %36 = getelementptr inbounds [1 x ptr], ptr %34, i64 0, i64 %indvars.iv49
  %37 = load ptr, ptr %36, align 8
  %.not39 = icmp eq ptr %37, null
  br i1 %.not39, label %40, label %38

38:                                               ; preds = %35
  %39 = tail call fastcc ptr @zend_persist_ast(ptr noundef nonnull %37)
  store ptr %39, ptr %36, align 8
  br label %40

40:                                               ; preds = %35, %38
  %indvars.iv.next50 = add nuw nsw i64 %indvars.iv49, 1
  %exitcond.not = icmp eq i64 %indvars.iv.next50, %wide.trip.count
  br i1 %exitcond.not, label %.loopexit, label %35

.loopexit:                                        ; preds = %25, %40, %10, %29, %5
  %.035 = phi ptr [ %6, %5 ], [ %33, %29 ], [ %16, %10 ], [ %33, %40 ], [ %16, %25 ]
  ret ptr %.035
}